target datalayout = "e-m:e-p270:32:32-p271:32:32-p272:64:64-i64:64-i128:128-f80:128-n8:16:32:64-S128"
target triple = "x86_64-pc-linux-gnu"

@.str.1 = private unnamed_addr constant [39 x i8] c"System tmpdir %s could not be created\0A\00", align 1
@.str.2 = private unnamed_addr constant [37 x i8] c"PMIX ERROR: %s in file %s at line %d\00", align 1
@.str.3 = private unnamed_addr constant [25 x i8] c"base/ptl_base_listener.c\00", align 1
@.str.4 = private unnamed_addr constant [2 x i8] c"w\00", align 1
@.str.5 = private unnamed_addr constant [46 x i8] c"Impossible to open the file %s in write mode\0A\00", align 1
@.str.6 = private unnamed_addr constant [4 x i8] c"%s\0A\00", align 1
@.str.7 = private unnamed_addr constant [8 x i8] c"6.0.0a1\00", align 1
@.str.8 = private unnamed_addr constant [5 x i8] c"%lu\0A\00", align 1
@.str.9 = private unnamed_addr constant [9 x i8] c"%lu:%lu\0A\00", align 1

; Function Attrs: nounwind uwtable
define i32 @pmix_base_write_rndz_file(ptr noundef %0, ptr noundef %1, ptr noundef %2) #0 {
  %4 = alloca i32, align 4
  %5 = alloca ptr, align 8
  %6 = alloca ptr, align 8
  %7 = alloca ptr, align 8
  %8 = alloca ptr, align 8
  %9 = alloca ptr, align 8
  %10 = alloca i64, align 8
  %11 = alloca i32, align 4
  store ptr %0, ptr %5, align 8, !tbaa !72
  store ptr %1, ptr %6, align 8, !tbaa !72
  store ptr %2, ptr %7, align 8, !tbaa !73
  call void @llvm.lifetime.start.p0(i64 8, ptr %8) #12
  call void @llvm.lifetime.start.p0(i64 8, ptr %9) #12
  call void @llvm.lifetime.start.p0(i64 8, ptr %10) #12
  %12 = load ptr, ptr %5, align 8, !tbaa !72
  %13 = call noalias ptr @pmix_dirname(ptr noundef %12)
  store ptr %13, ptr %9, align 8, !tbaa !72
  %14 = load ptr, ptr %9, align 8, !tbaa !72
  %15 = icmp ne ptr null, %14
  br i1 %15, label %16, label %30

16:                                               ; preds = %3
  %17 = load ptr, ptr %9, align 8, !tbaa !72
  %18 = call i32 @pmix_os_dirpath_create(ptr noundef %17, i32 noundef 493)
  %19 = icmp ne i32 0, %18
  br i1 %19, label %20, label %27

20:                                               ; preds = %16
  %21 = load ptr, ptr %9, align 8, !tbaa !72
  call void (i32, ptr, ...) @pmix_output(i32 noundef 0, ptr noundef @.str.1, ptr noundef %21)
  br label %22

22:                                               ; preds = %20
  %23 = call ptr @PMIx_Error_string(i32 noundef -67)
  call void (i32, ptr, ...) @pmix_output(i32 noundef 0, ptr noundef @.str.2, ptr noundef %23, ptr noundef @.str.3, i32 noundef 205)
  br label %24

24:                                               ; preds = %22
  br label %25

25:                                               ; preds = %24
  %26 = load ptr, ptr %9, align 8, !tbaa !72
  call void @free(ptr noundef %26) #12
  store i32 -67, ptr %4, align 4
  store i32 1, ptr %11, align 4
  br label %72

27:                                               ; preds = %16
  %28 = load ptr, ptr %7, align 8, !tbaa !73
  store i8 1, ptr %28, align 1, !tbaa !10
  %29 = load ptr, ptr %9, align 8, !tbaa !72
  call void @free(ptr noundef %29) #12
  br label %30

30:                                               ; preds = %27, %3
  %31 = load ptr, ptr %5, align 8, !tbaa !72
  %32 = call noalias ptr @fopen(ptr noundef %31, ptr noundef @.str.4)
  store ptr %32, ptr %8, align 8, !tbaa !75
  %33 = load ptr, ptr %8, align 8, !tbaa !75
  %34 = icmp eq ptr null, %33
  br i1 %34, label %35, label %41

35:                                               ; preds = %30
  %36 = load ptr, ptr %5, align 8, !tbaa !72
  call void (i32, ptr, ...) @pmix_output(i32 noundef 0, ptr noundef @.str.5, ptr noundef %36)
  br label %37

37:                                               ; preds = %35
  %38 = call ptr @PMIx_Error_string(i32 noundef -67)
  call void (i32, ptr, ...) @pmix_output(i32 noundef 0, ptr noundef @.str.2, ptr noundef %38, ptr noundef @.str.3, i32 noundef 216)
  br label %39

39:                                               ; preds = %37
  br label %40

40:                                               ; preds = %39
  store i32 -67, ptr %4, align 4
  store i32 1, ptr %11, align 4
  br label %72

41:                                               ; preds = %30
  %42 = load ptr, ptr %8, align 8, !tbaa !75
  %43 = load ptr, ptr %6, align 8, !tbaa !72
  %44 = call i32 (ptr, ptr, ...) @fprintf(ptr noundef %42, ptr noundef @.str.6, ptr noundef %43) #12
  %45 = load ptr, ptr %8, align 8, !tbaa !75
  %46 = call i32 (ptr, ptr, ...) @fprintf(ptr noundef %45, ptr noundef @.str.6, ptr noundef @.str.7) #12
  %47 = load ptr, ptr %8, align 8, !tbaa !75
  %48 = call i32 @getpid() #12
  %49 = sext i32 %48 to i64
  %50 = call i32 (ptr, ptr, ...) @fprintf(ptr noundef %47, ptr noundef @.str.8, i64 noundef %49) #12
  %51 = load ptr, ptr %8, align 8, !tbaa !75
  %52 = call i32 @geteuid() #12
  %53 = zext i32 %52 to i64
  %54 = call i32 @getegid() #12
  %55 = zext i32 %54 to i64
  %56 = call i32 (ptr, ptr, ...) @fprintf(ptr noundef %51, ptr noundef @.str.9, i64 noundef %53, i64 noundef %55) #12
  %57 = call i64 @time(ptr noundef null) #12
  store i64 %57, ptr %10, align 8, !tbaa !8
  %58 = load ptr, ptr %8, align 8, !tbaa !75
  %59 = call ptr @ctime(ptr noundef %10) #12
  %60 = call i32 (ptr, ptr, ...) @fprintf(ptr noundef %58, ptr noundef @.str.6, ptr noundef %59) #12
  %61 = load ptr, ptr %8, align 8, !tbaa !75
  %62 = call i32 @fclose(ptr noundef %61)
  %63 = load ptr, ptr %5, align 8, !tbaa !72
  %64 = call i32 @chmod(ptr noundef %63, i32 noundef 416) #12
  %65 = icmp ne i32 0, %64
  br i1 %65, label %66, label %71

66:                                               ; preds = %41
  br label %67

67:                                               ; preds = %66
  %68 = call ptr @PMIx_Error_string(i32 noundef -67)
  call void (i32, ptr, ...) @pmix_output(i32 noundef 0, ptr noundef @.str.2, ptr noundef %68, ptr noundef @.str.3, i32 noundef 234)
  br label %69

69:                                               ; preds = %67
  br label %70

70:                                               ; preds = %69
  store i32 -67, ptr %4, align 4
  store i32 1, ptr %11, align 4
  br label %72

71:                                               ; preds = %41
  store i32 0, ptr %4, align 4
  store i32 1, ptr %11, align 4
  br label %72

72:                                               ; preds = %71, %70, %40, %25
  call void @llvm.lifetime.end.p0(i64 8, ptr %10) #12
  call void @llvm.lifetime.end.p0(i64 8, ptr %9) #12
  call void @llvm.lifetime.end.p0(i64 8, ptr %8) #12
  %73 = load i32, ptr %4, align 4
  ret i32 %73
}