; Function Attrs: nounwind uwtable
define range(i32 -67, 1) i32 @pmix_base_write_rndz_file(ptr noundef %0, ptr noundef %1, ptr noundef writeonly captures(none) %2) local_unnamed_addr #0 {
  %4 = alloca i64, align 8
  call void @llvm.lifetime.start.p0(i64 8, ptr nonnull %4) #16
  %5 = tail call noalias ptr @pmix_dirname(ptr noundef %0) #16
  %.not = icmp eq ptr %5, null
  br i1 %.not, label %11, label %6

6:                                                ; preds = %3
  %7 = tail call i32 @pmix_os_dirpath_create(ptr noundef nonnull %5, i32 noundef 493) #16
  %.not20 = icmp eq i32 %7, 0
  br i1 %.not20, label %10, label %8

8:                                                ; preds = %6
  tail call void (i32, ptr, ...) @pmix_output(i32 noundef 0, ptr noundef nonnull @.str.1, ptr noundef nonnull %5) #16
  %9 = tail call ptr @PMIx_Error_string(i32 noundef -67) #16
  tail call void (i32, ptr, ...) @pmix_output(i32 noundef 0, ptr noundef nonnull @.str.2, ptr noundef %9, ptr noundef nonnull @.str.3, i32 noundef 205) #16
  tail call void @free(ptr noundef nonnull %5) #16
  br label %34

10:                                               ; preds = %6
  store i8 1, ptr %2, align 1, !tbaa !73
  tail call void @free(ptr noundef nonnull %5) #16
  br label %11

11:                                               ; preds = %10, %3
  %12 = tail call noalias ptr @fopen(ptr noundef %0, ptr noundef nonnull @.str.4)
  %13 = icmp eq ptr %12, null
  br i1 %13, label %14, label %16

14:                                               ; preds = %11
  tail call void (i32, ptr, ...) @pmix_output(i32 noundef 0, ptr noundef nonnull @.str.5, ptr noundef %0) #16
  %15 = tail call ptr @PMIx_Error_string(i32 noundef -67) #16
  tail call void (i32, ptr, ...) @pmix_output(i32 noundef 0, ptr noundef nonnull @.str.2, ptr noundef %15, ptr noundef nonnull @.str.3, i32 noundef 216) #16
  br label %34

16:                                               ; preds = %11
  %17 = tail call i32 (ptr, ptr, ...) @fprintf(ptr noundef nonnull %12, ptr noundef nonnull @.str.6, ptr noundef %1) #16
  %18 = tail call i32 (ptr, ptr, ...) @fprintf(ptr noundef nonnull %12, ptr noundef nonnull @.str.6, ptr noundef nonnull @.str.7) #16
  %19 = tail call i32 @getpid() #16
  %20 = sext i32 %19 to i64
  %21 = tail call i32 (ptr, ptr, ...) @fprintf(ptr noundef nonnull %12, ptr noundef nonnull @.str.8, i64 noundef %20) #16
  %22 = tail call i32 @geteuid() #16
  %23 = zext i32 %22 to i64
  %24 = tail call i32 @getegid() #16
  %25 = zext i32 %24 to i64
  %26 = tail call i32 (ptr, ptr, ...) @fprintf(ptr noundef nonnull %12, ptr noundef nonnull @.str.9, i64 noundef %23, i64 noundef %25) #16
  %27 = tail call i64 @time(ptr noundef null) #16
  store i64 %27, ptr %4, align 8, !tbaa !74
  %28 = call ptr @ctime(ptr noundef nonnull %4) #16
  %29 = call i32 (ptr, ptr, ...) @fprintf(ptr noundef nonnull %12, ptr noundef nonnull @.str.6, ptr noundef %28) #16
  %30 = call i32 @fclose(ptr noundef nonnull %12)
  %31 = call i32 @chmod(ptr noundef %0, i32 noundef 416) #16
  %.not21 = icmp eq i32 %31, 0
  br i1 %.not21, label %34, label %32

32:                                               ; preds = %16
  %33 = call ptr @PMIx_Error_string(i32 noundef -67) #16
  call void (i32, ptr, ...) @pmix_output(i32 noundef 0, ptr noundef nonnull @.str.2, ptr noundef %33, ptr noundef nonnull @.str.3, i32 noundef 234) #16
  br label %34

34:                                               ; preds = %16, %32, %14, %8
  %.0 = phi i32 [ -67, %8 ], [ -67, %14 ], [ -67, %32 ], [ 0, %16 ]
  call void @llvm.lifetime.end.p0(i64 8, ptr nonnull %4) #16
  ret i32 %.0
}